; Function Attrs: nounwind uwtable
define internal fastcc void @H5P__free_prop(ptr noundef %0) unnamed_addr #0 {
  %2 = load i8, ptr @H5P_init_g, align 1, !tbaa !3, !range !7, !noundef !8
  %3 = trunc nuw i8 %2 to i1
  %4 = load i8, ptr @H5_libterm_g, align 1, !range !7
  %5 = trunc nuw i8 %4 to i1
  %6 = xor i1 %5, true
  %7 = select i1 %3, i1 true, i1 %6
  br i1 %7, label %8, label %22, !prof !9

8:                                                ; preds = %1
  %9 = getelementptr inbounds nuw i8, ptr %0, i64 16
  %10 = load ptr, ptr %9, align 8, !tbaa !72
  %.not = icmp eq ptr %10, null
  br i1 %.not, label %13, label %11

11:                                               ; preds = %8
  %12 = tail call ptr @H5MM_xfree(ptr noundef nonnull %10) #14
  br label %13

13:                                               ; preds = %11, %8
  %14 = getelementptr inbounds nuw i8, ptr %0, i64 28
  %15 = load i8, ptr %14, align 4, !tbaa !71, !range !7, !noundef !8
  %16 = trunc nuw i8 %15 to i1
  br i1 %16, label %20, label %17

17:                                               ; preds = %13
  %18 = load ptr, ptr %0, align 8, !tbaa !61
  %19 = tail call ptr @H5MM_xfree(ptr noundef %18) #14
  br label %20

20:                                               ; preds = %17, %13
  %21 = tail call ptr @H5FL_reg_free(ptr noundef nonnull @H5_H5P_genprop_t_reg_free_list, ptr noundef nonnull %0) #14
  br label %22

22:                                               ; preds = %20, %1
  ret void
}